; Function Attrs: mustprogress uwtable
define dso_local void @_ZN4absl18debugging_internal11VDSOSupportC2Ev(ptr noundef nonnull align 8 dereferenceable(72) %0) unnamed_addr #0 align 2 personality ptr @__gxx_personality_v0 {
  %2 = load atomic i64, ptr @_ZN4absl18debugging_internal11VDSOSupport10vdso_base_E monotonic, align 8
  %3 = icmp eq i64 %2, ptrtoint (ptr @_ZN4absl18debugging_internal11ElfMemImage20kInvalidBaseSentinelE to i64)
  br i1 %3, label %4, label %6

4:                                                ; preds = %1
  %5 = tail call noundef ptr @_ZN4absl18debugging_internal11VDSOSupport4InitEv()
  br label %8

6:                                                ; preds = %1
  %7 = load atomic i64, ptr @_ZN4absl18debugging_internal11VDSOSupport10vdso_base_E monotonic, align 8
  %.0.i.i1 = inttoptr i64 %7 to ptr
  br label %8

8:                                                ; preds = %6, %4
  %9 = phi ptr [ %5, %4 ], [ %.0.i.i1, %6 ]
  tail call void @_ZN4absl18debugging_internal11ElfMemImageC1EPKv(ptr noundef nonnull align 8 dereferenceable(72) %0, ptr noundef %9)
  ret void
}